; Function Attrs: mustprogress uwtable
define noundef zeroext i1 @_ZN7httplib6Server6listenERKNSt7__cxx1112basic_stringIcSt11char_traitsIcESaIcEEEii(ptr noundef nonnull align 8 dereferenceable(816) %this, ptr noundef nonnull align 8 dereferenceable(32) %host, i32 noundef %port, i32 noundef %socket_flags) local_unnamed_addr #5 align 2 personality ptr @__gxx_personality_v0 {
_ZN7httplib6detail10scope_exitC2EOSt8functionIFvvEE.exit:
  %se = alloca %"struct.httplib::detail::scope_exit", align 8
  %0 = ptrtoint ptr %this to i64
  %_M_invoker.i.i = getelementptr inbounds i8, ptr %se, i64 24
  store ptr @"_ZNSt17_Function_handlerIFvvEZN7httplib6Server6listenERKNSt7__cxx1112basic_stringIcSt11char_traitsIcESaIcEEEiiE3$_0E9_M_invokeERKSt9_Any_data", ptr %_M_invoker.i.i, align 8
  %_M_manager.i.i.i = getelementptr inbounds i8, ptr %se, i64 16
  store i64 %0, ptr %se, align 8
  %ref.tmp.sroa.3.0.se.sroa_idx = getelementptr inbounds i8, ptr %se, i64 8
  store i64 0, ptr %ref.tmp.sroa.3.0.se.sroa_idx, align 8
  store ptr @"_ZNSt17_Function_handlerIFvvEZN7httplib6Server6listenERKNSt7__cxx1112basic_stringIcSt11char_traitsIcESaIcEEEiiE3$_0E10_M_managerERSt9_Any_dataRKSD_St18_Manager_operation", ptr %_M_manager.i.i.i, align 8
  %execute_on_destruction.i = getelementptr inbounds i8, ptr %se, i64 32
  store i8 1, ptr %execute_on_destruction.i, align 8
  %call.i3 = invoke noundef i32 @_ZN7httplib6Server13bind_internalERKNSt7__cxx1112basic_stringIcSt11char_traitsIcESaIcEEEii(ptr noundef nonnull align 8 dereferenceable(816) %this, ptr noundef nonnull align 8 dereferenceable(32) %host, i32 noundef %port, i32 noundef %socket_flags)
          to label %invoke.cont4 unwind label %lpad3

invoke.cont4:                                     ; preds = %_ZN7httplib6detail10scope_exitC2EOSt8functionIFvvEE.exit
  %cmp.i = icmp sgt i32 %call.i3, -1
  br i1 %cmp.i, label %land.rhs, label %if.end.i.i

land.rhs:                                         ; preds = %invoke.cont4
  %call6 = invoke noundef zeroext i1 @_ZN7httplib6Server15listen_internalEv(ptr noundef nonnull align 8 dereferenceable(816) %this)
          to label %land.end unwind label %lpad3

land.end:                                         ; preds = %land.rhs
  %.pre = load i8, ptr %execute_on_destruction.i, align 8
  %.pre11.pre = load ptr, ptr %_M_manager.i.i.i, align 8
  %1 = and i8 %.pre, 1
  %2 = icmp eq i8 %1, 0
  br i1 %2, label %if.end.i, label %if.then.i

if.then.i:                                        ; preds = %land.end
  %tobool.not.i.i.i = icmp eq ptr %.pre11.pre, null
  br i1 %tobool.not.i.i.i, label %if.then.i.i7, label %if.end.i.i

if.then.i.i7:                                     ; preds = %if.then.i
  invoke void @_ZSt25__throw_bad_function_callv() #41
          to label %.noexc.i unwind label %terminate.lpad.i

.noexc.i:                                         ; preds = %if.then.i.i7
  unreachable

if.end.i.i:                                       ; preds = %invoke.cont4, %if.then.i
  %3 = phi i1 [ %call6, %if.then.i ], [ false, %invoke.cont4 ]
  %4 = load ptr, ptr %_M_invoker.i.i, align 8
  invoke void %4(ptr noundef nonnull align 8 dereferenceable(16) %se)
          to label %if.end.i.i.if.end.i_crit_edge unwind label %terminate.lpad.i

if.end.i.i.if.end.i_crit_edge:                    ; preds = %if.end.i.i
  %.pre10 = load ptr, ptr %_M_manager.i.i.i, align 8
  br label %if.end.i

if.end.i:                                         ; preds = %if.end.i.i.if.end.i_crit_edge, %land.end
  %5 = phi i1 [ %3, %if.end.i.i.if.end.i_crit_edge ], [ %call6, %land.end ]
  %6 = phi ptr [ %.pre10, %if.end.i.i.if.end.i_crit_edge ], [ %.pre11.pre, %land.end ]
  %tobool.not.i.i3.i = icmp eq ptr %6, null
  br i1 %tobool.not.i.i3.i, label %_ZN7httplib6detail10scope_exitD2Ev.exit, label %if.then.i.i.i

if.then.i.i.i:                                    ; preds = %if.end.i
  %call.i.i.i = invoke noundef zeroext i1 %6(ptr noundef nonnull align 8 dereferenceable(16) %se, ptr noundef nonnull align 8 dereferenceable(16) %se, i32 noundef 3)
          to label %_ZN7httplib6detail10scope_exitD2Ev.exit unwind label %terminate.lpad.i.i.i

terminate.lpad.i.i.i:                             ; preds = %if.then.i.i.i
  %7 = landingpad { ptr, i32 }
          catch ptr null
  %8 = extractvalue { ptr, i32 } %7, 0
  call void @__clang_call_terminate(ptr %8) #40
  unreachable

terminate.lpad.i:                                 ; preds = %if.end.i.i, %if.then.i.i7
  %9 = landingpad { ptr, i32 }
          catch ptr null
  %10 = extractvalue { ptr, i32 } %9, 0
  call void @__clang_call_terminate(ptr %10) #40
  unreachable

_ZN7httplib6detail10scope_exitD2Ev.exit:          ; preds = %if.end.i, %if.then.i.i.i
  ret i1 %5

lpad3:                                            ; preds = %_ZN7httplib6detail10scope_exitC2EOSt8functionIFvvEE.exit, %land.rhs
  %11 = landingpad { ptr, i32 }
          cleanup
  call void @_ZN7httplib6detail10scope_exitD2Ev(ptr noundef nonnull align 8 dereferenceable(33) %se) #37
  resume { ptr, i32 } %11
}